target datalayout = "e-m:e-p270:32:32-p271:32:32-p272:64:64-i64:64-i128:128-f80:128-n8:16:32:64-S128"
target triple = "x86_64-pc-linux-gnu"

%"class.datalog::udoc_relation" = type { %"class.datalog::relation_base.base", ptr, %class.union_bvec, %class.svector }
%"class.datalog::relation_base.base" = type { %"class.datalog::tr_infrastructure<datalog::relation_traits>::base_ancestor.base" }
%"class.datalog::tr_infrastructure<datalog::relation_traits>::base_ancestor.base" = type <{ ptr, ptr, %"class.datalog::relation_signature", i32 }>
%"class.datalog::relation_signature" = type { %"class.datalog::tr_infrastructure<datalog::relation_traits>::signature_base" }
%"class.datalog::tr_infrastructure<datalog::relation_traits>::signature_base" = type { %class.ptr_vector }
%class.ptr_vector = type { %class.vector }
%class.vector = type { ptr }
%class.union_bvec = type { %class.buffer }
%class.buffer = type { ptr, i32, i32, [64 x i8] }
%class.svector = type { %class.vector.0 }
%class.vector.0 = type { ptr }
%"class.datalog::tr_infrastructure<datalog::relation_traits>::base_ancestor" = type <{ ptr, ptr, %"class.datalog::relation_signature", i32, [4 x i8] }>
%class.rational = type { %class.mpq }
%class.mpq = type { %class.mpz, %class.mpz }
%class.mpz = type { i32, i8, ptr }
%class.doc_manager = type { %class.tbv_manager, ptr, %class.small_object_allocator }
%class.tbv_manager = type { %class.fixed_bit_vector_manager, %class.ptr_vector.2 }
%class.fixed_bit_vector_manager = type <{ %class.small_object_allocator, i32, i32, i32, i32, %class.fixed_bit_vector, [4 x i8] }>
%class.fixed_bit_vector = type { [1 x i32] }
%class.ptr_vector.2 = type { %class.vector.3 }
%class.vector.3 = type { ptr }
%class.small_object_allocator = type { [32 x ptr], [32 x ptr], i64 }
%class.doc = type { ptr, %class.union_bvec.6 }
%class.union_bvec.6 = type { %class.buffer.7 }
%class.buffer.7 = type { ptr, i32, i32, [64 x i8] }
%class.doc_ref = type { ptr, ptr }

; Function Attrs: mustprogress nounwind uwtable
define linkonce_odr hidden void @_ZN3mpzC2Ei(ptr noundef nonnull align 8 dereferenceable(16) %0, i32 noundef %1) unnamed_addr #6 comdat align 2 {
  %3 = alloca ptr, align 8
  %4 = alloca i32, align 4
  store ptr %0, ptr %3, align 8, !tbaa !576
  store i32 %1, ptr %4, align 4, !tbaa !16
  %5 = load ptr, ptr %3, align 8
  %6 = getelementptr inbounds nuw %class.mpz, ptr %5, i32 0, i32 0
  %7 = load i32, ptr %4, align 4, !tbaa !16
  store i32 %7, ptr %6, align 8, !tbaa !578
  %8 = getelementptr inbounds nuw %class.mpz, ptr %5, i32 0, i32 1
  %9 = load i8, ptr %8, align 4
  %10 = and i8 %9, -2
  %11 = or i8 %10, 0
  store i8 %11, ptr %8, align 4
  %12 = getelementptr inbounds nuw %class.mpz, ptr %5, i32 0, i32 1
  %13 = load i8, ptr %12, align 4
  %14 = and i8 %13, -3
  %15 = or i8 %14, 0
  store i8 %15, ptr %12, align 4
  %16 = getelementptr inbounds nuw %class.mpz, ptr %5, i32 0, i32 2
  store ptr null, ptr %16, align 8, !tbaa !581
  ret void
}

; Function Attrs: mustprogress nounwind uwtable
define linkonce_odr hidden void @_ZN3mpzC2Ev(ptr noundef nonnull align 8 dereferenceable(16) %0) unnamed_addr #6 comdat align 2 {
  %2 = alloca ptr, align 8
  store ptr %0, ptr %2, align 8, !tbaa !576
  %3 = load ptr, ptr %2, align 8
  %4 = getelementptr inbounds nuw %class.mpz, ptr %3, i32 0, i32 0
  store i32 0, ptr %4, align 8, !tbaa !578
  %5 = getelementptr inbounds nuw %class.mpz, ptr %3, i32 0, i32 1
  %6 = load i8, ptr %5, align 4
  %7 = and i8 %6, -2
  %8 = or i8 %7, 0
  store i8 %8, ptr %5, align 4
  %9 = getelementptr inbounds nuw %class.mpz, ptr %3, i32 0, i32 1
  %10 = load i8, ptr %9, align 4
  %11 = and i8 %10, -3
  %12 = or i8 %11, 0
  store i8 %12, ptr %9, align 4
  %13 = getelementptr inbounds nuw %class.mpz, ptr %3, i32 0, i32 2
  store ptr null, ptr %13, align 8, !tbaa !581
  ret void
}

; Function Attrs: mustprogress nounwind uwtable
define linkonce_odr hidden noundef nonnull align 4 dereferenceable(4) ptr @_ZNK6vectorIjLb0EjEixEj(ptr noundef nonnull align 8 dereferenceable(8) %0, i32 noundef %1) #6 comdat align 2 {
  %3 = alloca ptr, align 8
  %4 = alloca i32, align 4
  store ptr %0, ptr %3, align 8, !tbaa !37
  store i32 %1, ptr %4, align 4, !tbaa !16
  %5 = load ptr, ptr %3, align 8
  %6 = getelementptr inbounds nuw %class.vector.0, ptr %5, i32 0, i32 0
  %7 = load ptr, ptr %6, align 8, !tbaa !41
  %8 = load i32, ptr %4, align 4, !tbaa !16
  %9 = zext i32 %8 to i64
  %10 = getelementptr inbounds nuw i32, ptr %7, i64 %9
  ret ptr %10
}

; Function Attrs: mustprogress uwtable
define linkonce_odr hidden void @_ZN3mpqC2Ev(ptr noundef nonnull align 8 dereferenceable(32) %0) unnamed_addr #4 comdat align 2 {
  %2 = alloca ptr, align 8
  store ptr %0, ptr %2, align 8, !tbaa !574
  %3 = load ptr, ptr %2, align 8
  %4 = getelementptr inbounds nuw %class.mpq, ptr %3, i32 0, i32 0
  call void @_ZN3mpzC2Ev(ptr noundef nonnull align 8 dereferenceable(16) %4)
  %5 = getelementptr inbounds nuw %class.mpq, ptr %3, i32 0, i32 1
  call void @_ZN3mpzC2Ei(ptr noundef nonnull align 8 dereferenceable(16) %5, i32 noundef 1)
  ret void
}

; Function Attrs: mustprogress nounwind uwtable
define linkonce_odr hidden noundef nonnull align 8 dereferenceable(36) ptr @_ZNK7datalog17tr_infrastructureINS_15relation_traitsEE13base_ancestor10get_pluginEv(ptr noundef nonnull align 8 dereferenceable(28) %0) #6 comdat align 2 {
  %2 = alloca ptr, align 8
  store ptr %0, ptr %2, align 8, !tbaa !69
  %3 = load ptr, ptr %2, align 8
  %4 = getelementptr inbounds nuw %"class.datalog::tr_infrastructure<datalog::relation_traits>::base_ancestor", ptr %3, i32 0, i32 1
  %5 = load ptr, ptr %4, align 8, !tbaa !149
  ret ptr %5
}

; Function Attrs: mustprogress nounwind uwtable
define linkonce_odr hidden noundef nonnull align 4 dereferenceable(4) ptr @_ZN3doc3posEv(ptr noundef nonnull align 8 dereferenceable(88) %0) #6 comdat align 2 {
  %2 = alloca ptr, align 8
  store ptr %0, ptr %2, align 8, !tbaa !82
  %3 = load ptr, ptr %2, align 8
  %4 = getelementptr inbounds nuw %class.doc, ptr %3, i32 0, i32 0
  %5 = load ptr, ptr %4, align 8, !tbaa !97
  ret ptr %5
}

; Function Attrs: mustprogress nounwind uwtable
define linkonce_odr hidden noundef ptr @_ZN7doc_refptEv(ptr noundef nonnull align 8 dereferenceable(16) %0) #6 comdat align 2 {
  %2 = alloca ptr, align 8
  store ptr %0, ptr %2, align 8, !tbaa !111
  %3 = load ptr, ptr %2, align 8
  %4 = getelementptr inbounds nuw %class.doc_ref, ptr %3, i32 0, i32 1
  %5 = load ptr, ptr %4, align 8, !tbaa !113
  ret ptr %5
}

; Function Attrs: mustprogress nounwind uwtable
define linkonce_odr hidden noundef nonnull align 8 dereferenceable(552) ptr @_ZN11doc_manager4tbvmEv(ptr noundef nonnull align 8 dereferenceable(1080) %0) #6 comdat align 2 {
  %2 = alloca ptr, align 8
  store ptr %0, ptr %2, align 8, !tbaa !14
  %3 = load ptr, ptr %2, align 8
  %4 = getelementptr inbounds nuw %class.doc_manager, ptr %3, i32 0, i32 0
  ret ptr %4
}

; Function Attrs: mustprogress uwtable
define linkonce_odr hidden noundef nonnull align 8 dereferenceable(16) ptr @_ZN7doc_refaSEP3doc(ptr noundef nonnull align 8 dereferenceable(16) %0, ptr noundef %1) #4 comdat align 2 {
  %3 = alloca ptr, align 8
  %4 = alloca ptr, align 8
  store ptr %0, ptr %3, align 8, !tbaa !111
  store ptr %1, ptr %4, align 8, !tbaa !82
  %5 = load ptr, ptr %3, align 8
  %6 = getelementptr inbounds nuw %class.doc_ref, ptr %5, i32 0, i32 1
  %7 = load ptr, ptr %6, align 8, !tbaa !113
  %8 = icmp ne ptr %7, null
  br i1 %8, label %9, label %14

9:                                                ; preds = %2
  %10 = getelementptr inbounds nuw %class.doc_ref, ptr %5, i32 0, i32 0
  %11 = load ptr, ptr %10, align 8, !tbaa !116
  %12 = getelementptr inbounds nuw %class.doc_ref, ptr %5, i32 0, i32 1
  %13 = load ptr, ptr %12, align 8, !tbaa !113
  call void @_ZN11doc_manager10deallocateEP3doc(ptr noundef nonnull align 8 dereferenceable(1080) %11, ptr noundef %13)
  br label %14

14:                                               ; preds = %9, %2
  %15 = load ptr, ptr %4, align 8, !tbaa !82
  %16 = getelementptr inbounds nuw %class.doc_ref, ptr %5, i32 0, i32 1
  store ptr %15, ptr %16, align 8, !tbaa !113
  ret ptr %5
}

; Function Attrs: mustprogress uwtable
define linkonce_odr hidden noundef i32 @_ZNK7datalog13udoc_relation10column_idxEj(ptr noundef nonnull align 8 dereferenceable(128) %0, i32 noundef %1) #4 comdat align 2 {
  %3 = alloca ptr, align 8
  %4 = alloca i32, align 4
  store ptr %0, ptr %3, align 8, !tbaa !3
  store i32 %1, ptr %4, align 4, !tbaa !16
  %5 = load ptr, ptr %3, align 8
  %6 = getelementptr inbounds nuw %"class.datalog::udoc_relation", ptr %5, i32 0, i32 3
  %7 = load i32, ptr %4, align 4, !tbaa !16
  %8 = call noundef nonnull align 4 dereferenceable(4) ptr @_ZNK6vectorIjLb0EjEixEj(ptr noundef nonnull align 8 dereferenceable(8) %6, i32 noundef %7)
  %9 = load i32, ptr %8, align 4, !tbaa !16
  ret i32 %9
}

; Function Attrs: mustprogress uwtable
define linkonce_odr hidden void @_ZN8rationalC2Ev(ptr noundef nonnull align 8 dereferenceable(32) %0) unnamed_addr #4 comdat align 2 {
  %2 = alloca ptr, align 8
  store ptr %0, ptr %2, align 8, !tbaa !92
  %3 = load ptr, ptr %2, align 8
  %4 = getelementptr inbounds nuw %class.rational, ptr %3, i32 0, i32 0
  call void @_ZN3mpqC2Ev(ptr noundef nonnull align 8 dereferenceable(32) %4)
  ret void
}

; Function Attrs: mustprogress uwtable
define hidden noundef nonnull align 8 dereferenceable(129) ptr @_ZNK7datalog13udoc_relation10get_pluginEv(ptr noundef nonnull align 8 dereferenceable(128) %0) #4 align 2 {
  %2 = alloca ptr, align 8
  store ptr %0, ptr %2, align 8, !tbaa !3
  %3 = load ptr, ptr %2, align 8
  %4 = call noundef nonnull align 8 dereferenceable(36) ptr @_ZNK7datalog17tr_infrastructureINS_15relation_traitsEE13base_ancestor10get_pluginEv(ptr noundef nonnull align 8 dereferenceable(28) %3)
  ret ptr %4
}

; Function Attrs: mustprogress uwtable
define hidden noundef zeroext i1 @_ZNK7datalog13udoc_relation15apply_ground_eqER7doc_refjjjP4expr(ptr noundef nonnull align 8 dereferenceable(128) %0, ptr noundef nonnull align 8 dereferenceable(16) %1, i32 noundef %2, i32 noundef %3, i32 noundef %4, ptr noundef %5) #4 align 2 personality ptr @__gxx_personality_v0 {
  %7 = alloca i1, align 1
  %8 = alloca ptr, align 8
  %9 = alloca ptr, align 8
  %10 = alloca i32, align 4
  %11 = alloca i32, align 4
  %12 = alloca i32, align 4
  %13 = alloca ptr, align 8
  %14 = alloca ptr, align 8
  %15 = alloca i32, align 4
  %16 = alloca %class.rational, align 8
  %17 = alloca i32, align 4
  %18 = alloca ptr, align 8
  %19 = alloca i32, align 4
  %20 = alloca i32, align 4
  store ptr %0, ptr %8, align 8, !tbaa !3
  store ptr %1, ptr %9, align 8, !tbaa !111
  store i32 %2, ptr %10, align 4, !tbaa !16
  store i32 %3, ptr %11, align 4, !tbaa !16
  store i32 %4, ptr %12, align 4, !tbaa !16
  store ptr %5, ptr %13, align 8, !tbaa !94
  %21 = load ptr, ptr %8, align 8
  call void @llvm.lifetime.start.p0(i64 8, ptr %14) #3
  %22 = call noundef nonnull align 8 dereferenceable(129) ptr @_ZNK7datalog13udoc_relation10get_pluginEv(ptr noundef nonnull align 8 dereferenceable(128) %21)
  store ptr %22, ptr %14, align 8, !tbaa !8
  call void @llvm.lifetime.start.p0(i64 4, ptr %15) #3
  call void @llvm.lifetime.start.p0(i64 32, ptr %16) #3
  call void @_ZN8rationalC2Ev(ptr noundef nonnull align 8 dereferenceable(32) %16)
  call void @llvm.lifetime.start.p0(i64 4, ptr %17) #3
  %23 = load i32, ptr %10, align 4, !tbaa !16
  %24 = invoke noundef i32 @_ZNK7datalog13udoc_relation10column_idxEj(ptr noundef nonnull align 8 dereferenceable(128) %21, i32 noundef %23)
          to label %25 unwind label %56

25:                                               ; preds = %6
  store i32 %24, ptr %17, align 4, !tbaa !16
  %26 = load i32, ptr %17, align 4, !tbaa !16
  %27 = load i32, ptr %12, align 4, !tbaa !16
  %28 = add i32 %27, %26
  store i32 %28, ptr %12, align 4, !tbaa !16
  %29 = load i32, ptr %17, align 4, !tbaa !16
  %30 = load i32, ptr %11, align 4, !tbaa !16
  %31 = add i32 %30, %29
  store i32 %31, ptr %11, align 4, !tbaa !16
  %32 = load ptr, ptr %14, align 8, !tbaa !8
  %33 = load ptr, ptr %13, align 8, !tbaa !94
  %34 = invoke noundef zeroext i1 @_ZN7datalog11udoc_plugin10is_numeralEP4exprR8rationalRj(ptr noundef nonnull align 8 dereferenceable(129) %32, ptr noundef %33, ptr noundef nonnull align 8 dereferenceable(32) %16, ptr noundef nonnull align 4 dereferenceable(4) %15)
          to label %35 unwind label %56

35:                                               ; preds = %25
  br i1 %34, label %36, label %60

36:                                               ; preds = %35
  %37 = getelementptr inbounds nuw %"class.datalog::udoc_relation", ptr %21, i32 0, i32 1
  %38 = load ptr, ptr %37, align 8, !tbaa !71
  %39 = invoke noundef ptr @_ZN11doc_manager9allocateXEv(ptr noundef nonnull align 8 dereferenceable(1080) %38)
          to label %40 unwind label %56

40:                                               ; preds = %36
  %41 = load ptr, ptr %9, align 8, !tbaa !111
  %42 = invoke noundef nonnull align 8 dereferenceable(16) ptr @_ZN7doc_refaSEP3doc(ptr noundef nonnull align 8 dereferenceable(16) %41, ptr noundef %39)
          to label %43 unwind label %56

43:                                               ; preds = %40
  %44 = getelementptr inbounds nuw %"class.datalog::udoc_relation", ptr %21, i32 0, i32 1
  %45 = load ptr, ptr %44, align 8, !tbaa !71
  %46 = invoke noundef nonnull align 8 dereferenceable(552) ptr @_ZN11doc_manager4tbvmEv(ptr noundef nonnull align 8 dereferenceable(1080) %45)
          to label %47 unwind label %56

47:                                               ; preds = %43
  %48 = load ptr, ptr %9, align 8, !tbaa !111
  %49 = invoke noundef ptr @_ZN7doc_refptEv(ptr noundef nonnull align 8 dereferenceable(16) %48)
          to label %50 unwind label %56

50:                                               ; preds = %47
  %51 = invoke noundef nonnull align 4 dereferenceable(4) ptr @_ZN3doc3posEv(ptr noundef nonnull align 8 dereferenceable(88) %49)
          to label %52 unwind label %56

52:                                               ; preds = %50
  %53 = load i32, ptr %11, align 4, !tbaa !16
  %54 = load i32, ptr %12, align 4, !tbaa !16
  invoke void @_ZN11tbv_manager3setER3tbvRK8rationaljj(ptr noundef nonnull align 8 dereferenceable(552) %46, ptr noundef nonnull align 4 dereferenceable(4) %51, ptr noundef nonnull align 8 dereferenceable(32) %16, i32 noundef %53, i32 noundef %54)
          to label %55 unwind label %56

55:                                               ; preds = %52
  store i1 true, ptr %7, align 1
  store i32 1, ptr %20, align 4
  br label %61

56:                                               ; preds = %52, %50, %47, %43, %40, %36, %25, %6
  %57 = landingpad { ptr, i32 }
          cleanup
  %58 = extractvalue { ptr, i32 } %57, 0
  store ptr %58, ptr %18, align 8
  %59 = extractvalue { ptr, i32 } %57, 1
  store i32 %59, ptr %19, align 4
  call void @llvm.lifetime.end.p0(i64 4, ptr %17) #3
  call void @_ZN8rationalD2Ev(ptr noundef nonnull align 8 dereferenceable(32) %16) #3
  call void @llvm.lifetime.end.p0(i64 32, ptr %16) #3
  call void @llvm.lifetime.end.p0(i64 4, ptr %15) #3
  call void @llvm.lifetime.end.p0(i64 8, ptr %14) #3
  br label %63

60:                                               ; preds = %35
  store i1 false, ptr %7, align 1
  store i32 1, ptr %20, align 4
  br label %61

61:                                               ; preds = %60, %55
  call void @llvm.lifetime.end.p0(i64 4, ptr %17) #3
  call void @_ZN8rationalD2Ev(ptr noundef nonnull align 8 dereferenceable(32) %16) #3
  call void @llvm.lifetime.end.p0(i64 32, ptr %16) #3
  call void @llvm.lifetime.end.p0(i64 4, ptr %15) #3
  call void @llvm.lifetime.end.p0(i64 8, ptr %14) #3
  %62 = load i1, ptr %7, align 1
  ret i1 %62

63:                                               ; preds = %56
  %64 = load ptr, ptr %18, align 8
  %65 = load i32, ptr %19, align 4
  %66 = insertvalue { ptr, i32 } poison, ptr %64, 0
  %67 = insertvalue { ptr, i32 } %66, i32 %65, 1
  resume { ptr, i32 } %67
}