; Function Attrs: mustprogress uwtable
define hidden noundef zeroext i1 @_ZNK7datalog13udoc_relation15apply_ground_eqER7doc_refjjjP4expr(ptr noundef nonnull readonly align 8 captures(none) dereferenceable(128) %0, ptr noundef nonnull align 8 captures(none) dereferenceable(16) %1, i32 noundef %2, i32 noundef %3, i32 noundef %4, ptr noundef %5) local_unnamed_addr #3 align 2 personality ptr @__gxx_personality_v0 {
  %7 = alloca i32, align 4
  %8 = alloca %class.rational, align 8
  %9 = getelementptr inbounds nuw i8, ptr %0, i64 8
  %10 = load ptr, ptr %9, align 8, !tbaa !167
  call void @llvm.lifetime.start.p0(i64 4, ptr nonnull %7) #24
  call void @llvm.lifetime.start.p0(i64 32, ptr nonnull %8) #24
  store i32 0, ptr %8, align 8, !tbaa !163
  %11 = getelementptr inbounds nuw i8, ptr %8, i64 4
  store i8 0, ptr %11, align 4
  %12 = getelementptr inbounds nuw i8, ptr %8, i64 8
  store ptr null, ptr %12, align 8, !tbaa !166
  %13 = getelementptr inbounds nuw i8, ptr %8, i64 16
  store i32 1, ptr %13, align 8, !tbaa !163
  %14 = getelementptr inbounds nuw i8, ptr %8, i64 20
  store i8 0, ptr %14, align 4
  %15 = getelementptr inbounds nuw i8, ptr %8, i64 24
  store ptr null, ptr %15, align 8, !tbaa !166
  %16 = getelementptr inbounds nuw i8, ptr %0, i64 120
  %17 = load ptr, ptr %16, align 8, !tbaa !37
  %18 = zext i32 %2 to i64
  %19 = getelementptr inbounds nuw i32, ptr %17, i64 %18
  %20 = load i32, ptr %19, align 4, !tbaa !14
  %21 = add i32 %20, %4
  %22 = add i32 %20, %3
  %23 = invoke noundef zeroext i1 @_ZN7datalog11udoc_plugin10is_numeralEP4exprR8rationalRj(ptr noundef nonnull align 8 dereferenceable(129) %10, ptr noundef %5, ptr noundef nonnull align 8 dereferenceable(32) %8, ptr noundef nonnull align 4 dereferenceable(4) %7)
          to label %24 unwind label %37

24:                                               ; preds = %6
  br i1 %23, label %25, label %39

25:                                               ; preds = %24
  %26 = getelementptr inbounds nuw i8, ptr %0, i64 32
  %27 = load ptr, ptr %26, align 8, !tbaa !144
  %28 = invoke noundef ptr @_ZN11doc_manager9allocateXEv(ptr noundef nonnull align 8 dereferenceable(1080) %27)
          to label %29 unwind label %37

29:                                               ; preds = %25
  %30 = getelementptr inbounds nuw i8, ptr %1, i64 8
  %31 = load ptr, ptr %30, align 8, !tbaa !186
  %.not.i = icmp eq ptr %31, null
  br i1 %.not.i, label %34, label %32

32:                                               ; preds = %29
  %33 = load ptr, ptr %1, align 8, !tbaa !189
  invoke void @_ZN11doc_manager10deallocateEP3doc(ptr noundef nonnull align 8 dereferenceable(1080) %33, ptr noundef nonnull %31)
          to label %34 unwind label %37

34:                                               ; preds = %29, %32
  store ptr %28, ptr %30, align 8, !tbaa !186
  %35 = load ptr, ptr %26, align 8, !tbaa !144
  %36 = load ptr, ptr %28, align 8, !tbaa !169
  invoke void @_ZN11tbv_manager3setER3tbvRK8rationaljj(ptr noundef nonnull align 8 dereferenceable(552) %35, ptr noundef nonnull align 4 dereferenceable(4) %36, ptr noundef nonnull align 8 dereferenceable(32) %8, i32 noundef %22, i32 noundef %21)
          to label %39 unwind label %37

37:                                               ; preds = %32, %34, %25, %6
  %38 = landingpad { ptr, i32 }
          cleanup
  call void @_ZN8rationalD2Ev(ptr noundef nonnull align 8 dereferenceable(32) %8) #24
  call void @llvm.lifetime.end.p0(i64 32, ptr nonnull %8) #24
  call void @llvm.lifetime.end.p0(i64 4, ptr nonnull %7) #24
  resume { ptr, i32 } %38

39:                                               ; preds = %24, %34
  %40 = load ptr, ptr @_ZN8rational13g_mpq_managerE, align 8, !tbaa !175
  invoke void @_ZN11mpz_managerILb1EE3delEPS0_R3mpz(ptr noundef %40, ptr noundef nonnull align 8 dereferenceable(32) %8)
          to label %.noexc.i unwind label %41

.noexc.i:                                         ; preds = %39
  invoke void @_ZN11mpz_managerILb1EE3delEPS0_R3mpz(ptr noundef %40, ptr noundef nonnull align 8 dereferenceable(16) %13)
          to label %_ZN8rationalD2Ev.exit unwind label %41

41:                                               ; preds = %.noexc.i, %39
  %42 = landingpad { ptr, i32 }
          catch ptr null
  %43 = extractvalue { ptr, i32 } %42, 0
  call void @__clang_call_terminate(ptr %43) #26
  unreachable

_ZN8rationalD2Ev.exit:                            ; preds = %.noexc.i
  call void @llvm.lifetime.end.p0(i64 32, ptr nonnull %8) #24
  call void @llvm.lifetime.end.p0(i64 4, ptr nonnull %7) #24
  ret i1 %23
}